; Function Attrs: mustprogress uwtable
define noalias noundef ptr @_Z11save_callocPKcS0_imm(ptr noundef %0, ptr noundef %1, i32 noundef %2, i64 noundef %3, i64 noundef %4) local_unnamed_addr #0 personality ptr @__gxx_personality_v0 {
  %6 = alloca %"class.std::filesystem::__cxx11::path", align 8
  %7 = icmp eq i64 %3, 0
  %8 = icmp eq i64 %4, 0
  %or.cond = or i1 %7, %8
  br i1 %or.cond, label %18, label %9

9:                                                ; preds = %5
  %10 = tail call noalias ptr @calloc(i64 noundef %3, i64 noundef %4) #19
  %11 = icmp eq ptr %10, null
  br i1 %11, label %12, label %18

12:                                               ; preds = %9
  %13 = tail call ptr @__errno_location() #16
  %14 = load i32, ptr %13, align 4
  call void @_ZNSt10filesystem7__cxx114pathC2IA125_cS1_EERKT_NS1_6formatE(ptr noundef nonnull align 8 dereferenceable(40) %6, ptr noundef nonnull align 1 dereferenceable(125) @.str, i8 noundef zeroext 2)
  invoke void (i32, ptr, i32, ptr, ...) @_Z9gmx_fataliRKNSt10filesystem7__cxx114pathEiPKcz(i32 noundef %14, ptr noundef nonnull align 8 dereferenceable(40) %6, i32 noundef 131, ptr noundef nonnull @.str.2, i64 noundef %3, i64 noundef %4, ptr noundef %0, ptr noundef %1, i32 noundef %2) #17
          to label %15 unwind label %16

15:                                               ; preds = %12
  unreachable

16:                                               ; preds = %12
  %17 = landingpad { ptr, i32 }
          cleanup
  call void @_ZNSt10filesystem7__cxx114pathD2Ev(ptr noundef nonnull align 8 dereferenceable(40) %6) #18
  resume { ptr, i32 } %17

18:                                               ; preds = %5, %9
  %.0 = phi ptr [ %10, %9 ], [ null, %5 ]
  ret ptr %.0
}